target datalayout = "e-m:e-p270:32:32-p271:32:32-p272:64:64-i64:64-i128:128-f80:128-n8:16:32:64-S128"
target triple = "x86_64-pc-linux-gnu"

%"class.grpc_core::Timeout" = type <{ i16, i8, i8 }>
%"class.absl::lts_20240722::log_internal::NullStream" = type { i8 }

; Function Attrs: mustprogress uwtable
define i32 @_ZN9grpc_core7Timeout9FromHoursEl(i64 noundef %0) #4 align 2 {
  %2 = alloca %"class.grpc_core::Timeout", align 2
  %3 = alloca i64, align 8
  %4 = alloca %"class.absl::lts_20240722::log_internal::NullStream", align 1
  store i64 %0, ptr %3, align 8, !tbaa !3
  br label %5

5:                                                ; preds = %6, %1
  br i1 false, label %6, label %8

6:                                                ; preds = %5
  call void @llvm.lifetime.start.p0(i64 1, ptr %4) #3
  %7 = call noundef nonnull align 1 dereferenceable(1) ptr @_ZN4absl12lts_2024072212log_internal10NullStream14InternalStreamEv(ptr noundef nonnull align 1 dereferenceable(1) %4)
  call void @llvm.lifetime.end.p0(i64 1, ptr %4) #3
  br label %5, !llvm.loop !33

8:                                                ; preds = %5
  %9 = load i64, ptr %3, align 8, !tbaa !3
  %10 = icmp slt i64 %9, 27000
  br i1 %10, label %11, label %14

11:                                               ; preds = %8
  %12 = load i64, ptr %3, align 8, !tbaa !3
  %13 = trunc i64 %12 to i16
  call void @_ZN9grpc_core7TimeoutC2EtNS0_4UnitE(ptr noundef nonnull align 2 dereferenceable(3) %2, i16 noundef zeroext %13, i8 noundef zeroext 10)
  br label %15

14:                                               ; preds = %8
  call void @_ZN9grpc_core7TimeoutC2EtNS0_4UnitE(ptr noundef nonnull align 2 dereferenceable(3) %2, i16 noundef zeroext 27000, i8 noundef zeroext 10)
  br label %15

15:                                               ; preds = %14, %11
  %16 = load i32, ptr %2, align 2
  ret i32 %16
}

; Function Attrs: mustprogress uwtable
define i32 @_ZN9grpc_core7Timeout11FromMinutesEl(i64 noundef %0) #4 align 2 {
  %2 = alloca %"class.grpc_core::Timeout", align 2
  %3 = alloca i64, align 8
  %4 = alloca %"class.absl::lts_20240722::log_internal::NullStream", align 1
  %5 = alloca i64, align 8
  %6 = alloca i32, align 4
  %7 = alloca i64, align 8
  store i64 %0, ptr %3, align 8, !tbaa !3
  br label %8

8:                                                ; preds = %9, %1
  br i1 false, label %9, label %11

9:                                                ; preds = %8
  call void @llvm.lifetime.start.p0(i64 1, ptr %4) #3
  %10 = call noundef nonnull align 1 dereferenceable(1) ptr @_ZN4absl12lts_2024072212log_internal10NullStream14InternalStreamEv(ptr noundef nonnull align 1 dereferenceable(1) %4)
  call void @llvm.lifetime.end.p0(i64 1, ptr %4) #3
  br label %8, !llvm.loop !32

11:                                               ; preds = %8
  %12 = load i64, ptr %3, align 8, !tbaa !3
  %13 = icmp slt i64 %12, 1000
  br i1 %13, label %14, label %22

14:                                               ; preds = %11
  %15 = load i64, ptr %3, align 8, !tbaa !3
  %16 = srem i64 %15, 60
  %17 = icmp ne i64 %16, 0
  br i1 %17, label %18, label %21

18:                                               ; preds = %14
  %19 = load i64, ptr %3, align 8, !tbaa !3
  %20 = trunc i64 %19 to i16
  call void @_ZN9grpc_core7TimeoutC2EtNS0_4UnitE(ptr noundef nonnull align 2 dereferenceable(3) %2, i16 noundef zeroext %20, i8 noundef zeroext 7)
  br label %63

21:                                               ; preds = %14
  br label %58

22:                                               ; preds = %11
  %23 = load i64, ptr %3, align 8, !tbaa !3
  %24 = icmp slt i64 %23, 10000
  br i1 %24, label %25, label %39

25:                                               ; preds = %22
  call void @llvm.lifetime.start.p0(i64 8, ptr %5) #3
  %26 = load i64, ptr %3, align 8, !tbaa !3
  %27 = call noundef i64 @_ZN9grpc_core12_GLOBAL__N_116DivideRoundingUpEll(i64 noundef %26, i64 noundef 10)
  store i64 %27, ptr %5, align 8, !tbaa !3
  %28 = load i64, ptr %5, align 8, !tbaa !3
  %29 = mul nsw i64 %28, 10
  %30 = srem i64 %29, 60
  %31 = icmp ne i64 %30, 0
  br i1 %31, label %32, label %35

32:                                               ; preds = %25
  %33 = load i64, ptr %5, align 8, !tbaa !3
  %34 = trunc i64 %33 to i16
  call void @_ZN9grpc_core7TimeoutC2EtNS0_4UnitE(ptr noundef nonnull align 2 dereferenceable(3) %2, i16 noundef zeroext %34, i8 noundef zeroext 8)
  store i32 1, ptr %6, align 4
  br label %36

35:                                               ; preds = %25
  store i32 0, ptr %6, align 4
  br label %36

36:                                               ; preds = %35, %32
  call void @llvm.lifetime.end.p0(i64 8, ptr %5) #3
  %37 = load i32, ptr %6, align 4
  switch i32 %37, label %65 [
    i32 0, label %38
    i32 1, label %63
  ]

38:                                               ; preds = %36
  br label %57

39:                                               ; preds = %22
  %40 = load i64, ptr %3, align 8, !tbaa !3
  %41 = icmp slt i64 %40, 100000
  br i1 %41, label %42, label %56

42:                                               ; preds = %39
  call void @llvm.lifetime.start.p0(i64 8, ptr %7) #3
  %43 = load i64, ptr %3, align 8, !tbaa !3
  %44 = call noundef i64 @_ZN9grpc_core12_GLOBAL__N_116DivideRoundingUpEll(i64 noundef %43, i64 noundef 100)
  store i64 %44, ptr %7, align 8, !tbaa !3
  %45 = load i64, ptr %7, align 8, !tbaa !3
  %46 = mul nsw i64 %45, 100
  %47 = srem i64 %46, 60
  %48 = icmp ne i64 %47, 0
  br i1 %48, label %49, label %52

49:                                               ; preds = %42
  %50 = load i64, ptr %7, align 8, !tbaa !3
  %51 = trunc i64 %50 to i16
  call void @_ZN9grpc_core7TimeoutC2EtNS0_4UnitE(ptr noundef nonnull align 2 dereferenceable(3) %2, i16 noundef zeroext %51, i8 noundef zeroext 9)
  store i32 1, ptr %6, align 4
  br label %53

52:                                               ; preds = %42
  store i32 0, ptr %6, align 4
  br label %53

53:                                               ; preds = %52, %49
  call void @llvm.lifetime.end.p0(i64 8, ptr %7) #3
  %54 = load i32, ptr %6, align 4
  switch i32 %54, label %65 [
    i32 0, label %55
    i32 1, label %63
  ]

55:                                               ; preds = %53
  br label %56

56:                                               ; preds = %55, %39
  br label %57

57:                                               ; preds = %56, %38
  br label %58

58:                                               ; preds = %57, %21
  %59 = load i64, ptr %3, align 8, !tbaa !3
  %60 = call noundef i64 @_ZN9grpc_core12_GLOBAL__N_116DivideRoundingUpEll(i64 noundef %59, i64 noundef 60)
  %61 = call i32 @_ZN9grpc_core7Timeout9FromHoursEl(i64 noundef %60)
  %62 = trunc i32 %61 to i24
  store i24 %62, ptr %2, align 2
  br label %63

63:                                               ; preds = %58, %53, %36, %18
  %64 = load i32, ptr %2, align 2
  ret i32 %64

65:                                               ; preds = %53, %36
  unreachable
}

; Function Attrs: mustprogress nounwind uwtable
define internal noundef i64 @_ZN9grpc_core12_GLOBAL__N_116DivideRoundingUpEll(i64 noundef %0, i64 noundef %1) #5 {
  %3 = alloca i64, align 8
  %4 = alloca i64, align 8
  store i64 %0, ptr %3, align 8, !tbaa !3
  store i64 %1, ptr %4, align 8, !tbaa !3
  %5 = load i64, ptr %3, align 8, !tbaa !3
  %6 = sub nsw i64 %5, 1
  %7 = load i64, ptr %4, align 8, !tbaa !3
  %8 = add nsw i64 %6, %7
  %9 = load i64, ptr %4, align 8, !tbaa !3
  %10 = sdiv i64 %8, %9
  ret i64 %10
}

; Function Attrs: mustprogress nounwind uwtable
define linkonce_odr void @_ZN9grpc_core7TimeoutC2EtNS0_4UnitE(ptr noundef nonnull align 2 dereferenceable(3) %0, i16 noundef zeroext %1, i8 noundef zeroext %2) unnamed_addr #5 comdat align 2 {
  %4 = alloca ptr, align 8
  %5 = alloca i16, align 2
  %6 = alloca i8, align 1
  store ptr %0, ptr %4, align 8, !tbaa !12
  store i16 %1, ptr %5, align 2, !tbaa !23
  store i8 %2, ptr %6, align 1, !tbaa !27
  %7 = load ptr, ptr %4, align 8
  %8 = getelementptr inbounds nuw %"class.grpc_core::Timeout", ptr %7, i32 0, i32 0
  %9 = load i16, ptr %5, align 2, !tbaa !23
  store i16 %9, ptr %8, align 2, !tbaa !16
  %10 = getelementptr inbounds nuw %"class.grpc_core::Timeout", ptr %7, i32 0, i32 1
  %11 = load i8, ptr %6, align 1, !tbaa !27
  store i8 %11, ptr %10, align 2, !tbaa !20
  ret void
}

; Function Attrs: mustprogress nounwind uwtable
define linkonce_odr noundef nonnull align 1 dereferenceable(1) ptr @_ZN4absl12lts_2024072212log_internal10NullStream14InternalStreamEv(ptr noundef nonnull align 1 dereferenceable(1) %0) #5 comdat align 2 {
  %2 = alloca ptr, align 8
  store ptr %0, ptr %2, align 8, !tbaa !30
  %3 = load ptr, ptr %2, align 8
  ret ptr %3
}

; Function Attrs: mustprogress uwtable
define i32 @_ZN9grpc_core7Timeout11FromSecondsEl(i64 noundef %0) #4 align 2 {
  %2 = alloca %"class.grpc_core::Timeout", align 2
  %3 = alloca i64, align 8
  %4 = alloca %"class.absl::lts_20240722::log_internal::NullStream", align 1
  %5 = alloca i64, align 8
  %6 = alloca i32, align 4
  %7 = alloca i64, align 8
  store i64 %0, ptr %3, align 8, !tbaa !3
  br label %8

8:                                                ; preds = %9, %1
  br i1 false, label %9, label %11

9:                                                ; preds = %8
  call void @llvm.lifetime.start.p0(i64 1, ptr %4) #3
  %10 = call noundef nonnull align 1 dereferenceable(1) ptr @_ZN4absl12lts_2024072212log_internal10NullStream14InternalStreamEv(ptr noundef nonnull align 1 dereferenceable(1) %4)
  call void @llvm.lifetime.end.p0(i64 1, ptr %4) #3
  br label %8, !llvm.loop !28

11:                                               ; preds = %8
  %12 = load i64, ptr %3, align 8, !tbaa !3
  %13 = icmp slt i64 %12, 1000
  br i1 %13, label %14, label %22

14:                                               ; preds = %11
  %15 = load i64, ptr %3, align 8, !tbaa !3
  %16 = srem i64 %15, 60
  %17 = icmp ne i64 %16, 0
  br i1 %17, label %18, label %21

18:                                               ; preds = %14
  %19 = load i64, ptr %3, align 8, !tbaa !3
  %20 = trunc i64 %19 to i16
  call void @_ZN9grpc_core7TimeoutC2EtNS0_4UnitE(ptr noundef nonnull align 2 dereferenceable(3) %2, i16 noundef zeroext %20, i8 noundef zeroext 4)
  br label %63

21:                                               ; preds = %14
  br label %58

22:                                               ; preds = %11
  %23 = load i64, ptr %3, align 8, !tbaa !3
  %24 = icmp slt i64 %23, 10000
  br i1 %24, label %25, label %39

25:                                               ; preds = %22
  call void @llvm.lifetime.start.p0(i64 8, ptr %5) #3
  %26 = load i64, ptr %3, align 8, !tbaa !3
  %27 = call noundef i64 @_ZN9grpc_core12_GLOBAL__N_116DivideRoundingUpEll(i64 noundef %26, i64 noundef 10)
  store i64 %27, ptr %5, align 8, !tbaa !3
  %28 = load i64, ptr %5, align 8, !tbaa !3
  %29 = mul nsw i64 %28, 10
  %30 = srem i64 %29, 60
  %31 = icmp ne i64 %30, 0
  br i1 %31, label %32, label %35

32:                                               ; preds = %25
  %33 = load i64, ptr %5, align 8, !tbaa !3
  %34 = trunc i64 %33 to i16
  call void @_ZN9grpc_core7TimeoutC2EtNS0_4UnitE(ptr noundef nonnull align 2 dereferenceable(3) %2, i16 noundef zeroext %34, i8 noundef zeroext 5)
  store i32 1, ptr %6, align 4
  br label %36

35:                                               ; preds = %25
  store i32 0, ptr %6, align 4
  br label %36

36:                                               ; preds = %35, %32
  call void @llvm.lifetime.end.p0(i64 8, ptr %5) #3
  %37 = load i32, ptr %6, align 4
  switch i32 %37, label %65 [
    i32 0, label %38
    i32 1, label %63
  ]

38:                                               ; preds = %36
  br label %57

39:                                               ; preds = %22
  %40 = load i64, ptr %3, align 8, !tbaa !3
  %41 = icmp slt i64 %40, 100000
  br i1 %41, label %42, label %56

42:                                               ; preds = %39
  call void @llvm.lifetime.start.p0(i64 8, ptr %7) #3
  %43 = load i64, ptr %3, align 8, !tbaa !3
  %44 = call noundef i64 @_ZN9grpc_core12_GLOBAL__N_116DivideRoundingUpEll(i64 noundef %43, i64 noundef 100)
  store i64 %44, ptr %7, align 8, !tbaa !3
  %45 = load i64, ptr %7, align 8, !tbaa !3
  %46 = mul nsw i64 %45, 100
  %47 = srem i64 %46, 60
  %48 = icmp ne i64 %47, 0
  br i1 %48, label %49, label %52

49:                                               ; preds = %42
  %50 = load i64, ptr %7, align 8, !tbaa !3
  %51 = trunc i64 %50 to i16
  call void @_ZN9grpc_core7TimeoutC2EtNS0_4UnitE(ptr noundef nonnull align 2 dereferenceable(3) %2, i16 noundef zeroext %51, i8 noundef zeroext 6)
  store i32 1, ptr %6, align 4
  br label %53

52:                                               ; preds = %42
  store i32 0, ptr %6, align 4
  br label %53

53:                                               ; preds = %52, %49
  call void @llvm.lifetime.end.p0(i64 8, ptr %7) #3
  %54 = load i32, ptr %6, align 4
  switch i32 %54, label %65 [
    i32 0, label %55
    i32 1, label %63
  ]

55:                                               ; preds = %53
  br label %56

56:                                               ; preds = %55, %39
  br label %57

57:                                               ; preds = %56, %38
  br label %58

58:                                               ; preds = %57, %21
  %59 = load i64, ptr %3, align 8, !tbaa !3
  %60 = call noundef i64 @_ZN9grpc_core12_GLOBAL__N_116DivideRoundingUpEll(i64 noundef %59, i64 noundef 60)
  %61 = call i32 @_ZN9grpc_core7Timeout11FromMinutesEl(i64 noundef %60)
  %62 = trunc i32 %61 to i24
  store i24 %62, ptr %2, align 2
  br label %63

63:                                               ; preds = %58, %53, %36, %18
  %64 = load i32, ptr %2, align 2
  ret i32 %64

65:                                               ; preds = %53, %36
  unreachable
}