; Function Attrs: mustprogress nofree norecurse nosync nounwind willreturn memory(none) uwtable
define range(i32 262144, 720896) i32 @_ZN9grpc_core7Timeout11FromSecondsEl(i64 noundef %0) local_unnamed_addr #3 align 2 {
  %2 = icmp slt i64 %0, 1000
  br i1 %2, label %3, label %7

3:                                                ; preds = %1
  %4 = srem i64 %0, 60
  %.not17 = icmp eq i64 %4, 0
  br i1 %.not17, label %.thread.thread, label %5

5:                                                ; preds = %3
  %6 = trunc i64 %0 to i16
  br label %_ZN9grpc_core7Timeout11FromMinutesEl.exit

7:                                                ; preds = %1
  %8 = icmp samesign ult i64 %0, 10000
  br i1 %8, label %9, label %13

9:                                                ; preds = %7
  %10 = trunc nuw i64 %0 to i16
  %.lhs.trunc = add nuw nsw i16 %10, 9
  %11 = udiv i16 %.lhs.trunc, 10
  %.lhs.trunc27 = mul nuw nsw i16 %11, 10
  %12 = urem i16 %.lhs.trunc27, 60
  %.not16.not = icmp eq i16 %12, 0
  br i1 %.not16.not, label %.thread.thread, label %_ZN9grpc_core7Timeout11FromMinutesEl.exit

13:                                               ; preds = %7
  %14 = icmp samesign ult i64 %0, 100000
  br i1 %14, label %15, label %31

15:                                               ; preds = %13
  %16 = trunc nuw i64 %0 to i32
  %.lhs.trunc29 = add nuw nsw i32 %16, 99
  %17 = udiv i32 %.lhs.trunc29, 100
  %.lhs.trunc31 = mul nuw nsw i32 %17, 100
  %18 = urem i32 %.lhs.trunc31, 60
  %.not.not = icmp eq i32 %18, 0
  br i1 %.not.not, label %.thread, label %19

19:                                               ; preds = %15
  %20 = trunc nuw i32 %17 to i16
  br label %_ZN9grpc_core7Timeout11FromMinutesEl.exit

.thread.thread:                                   ; preds = %9, %3
  %21 = add nsw i64 %0, 59
  %22 = sdiv i64 %21, 60
  br label %26

.thread:                                          ; preds = %15
  %23 = trunc nuw i64 %0 to i32
  %.lhs.trunc36 = add nuw nsw i32 %23, 59
  %24 = udiv i32 %.lhs.trunc36, 60
  %.zext = zext nneg i32 %24 to i64
  %25 = icmp samesign ult i64 %0, 59941
  br i1 %25, label %26, label %.thread35

26:                                               ; preds = %.thread.thread, %.thread
  %27 = phi i64 [ %22, %.thread.thread ], [ %.zext, %.thread ]
  %28 = srem i64 %27, 60
  %.not17.i = icmp eq i64 %28, 0
  br i1 %.not17.i, label %.thread.i, label %29

29:                                               ; preds = %26
  %30 = trunc i64 %27 to i16
  br label %_ZN9grpc_core7Timeout11FromMinutesEl.exit

31:                                               ; preds = %13
  %32 = add nuw nsw i64 %0, 59
  %33 = udiv i64 %32, 60
  %34 = icmp ult i64 %0, 599941
  br i1 %34, label %.thread35, label %39

.thread35:                                        ; preds = %.thread, %31
  %35 = phi i64 [ %33, %31 ], [ %.zext, %.thread ]
  %36 = trunc nuw i64 %35 to i16
  %.lhs.trunc.i = add nuw nsw i16 %36, 9
  %37 = udiv i16 %.lhs.trunc.i, 10
  %.lhs.trunc27.i = mul nuw nsw i16 %37, 10
  %38 = urem i16 %.lhs.trunc27.i, 60
  %.not16.not.i = icmp eq i16 %38, 0
  br i1 %.not16.not.i, label %.thread.i, label %_ZN9grpc_core7Timeout11FromMinutesEl.exit

39:                                               ; preds = %31
  %40 = icmp ult i64 %0, 5999941
  br i1 %40, label %41, label %.thread.i

41:                                               ; preds = %39
  %42 = trunc nuw i64 %33 to i32
  %.lhs.trunc29.i = add nuw nsw i32 %42, 99
  %43 = udiv i32 %.lhs.trunc29.i, 100
  %.lhs.trunc31.i = mul nuw nsw i32 %43, 100
  %44 = urem i32 %.lhs.trunc31.i, 60
  %.not.not.i = icmp eq i32 %44, 0
  br i1 %.not.not.i, label %.thread.i, label %45

45:                                               ; preds = %41
  %46 = trunc nuw i32 %43 to i16
  br label %_ZN9grpc_core7Timeout11FromMinutesEl.exit

.thread.i:                                        ; preds = %41, %39, %.thread35, %26
  %47 = phi i64 [ %33, %41 ], [ %33, %39 ], [ %35, %.thread35 ], [ %27, %26 ]
  %48 = add nsw i64 %47, 59
  %49 = sdiv i64 %48, 60
  %spec.select2.i.i = tail call i64 @llvm.smin.i64(i64 %49, i64 27000)
  %spec.select.i.i = trunc i64 %spec.select2.i.i to i16
  br label %_ZN9grpc_core7Timeout11FromMinutesEl.exit

_ZN9grpc_core7Timeout11FromMinutesEl.exit:        ; preds = %.thread.i, %45, %.thread35, %29, %9, %19, %5
  %.sroa.0.sroa.0.0 = phi i16 [ %6, %5 ], [ %20, %19 ], [ %11, %9 ], [ %spec.select.i.i, %.thread.i ], [ %30, %29 ], [ %46, %45 ], [ %37, %.thread35 ]
  %.sroa.0.sroa.5.0 = phi i32 [ 262144, %5 ], [ 393216, %19 ], [ 327680, %9 ], [ 655360, %.thread.i ], [ 458752, %29 ], [ 589824, %45 ], [ 524288, %.thread35 ]
  %.sroa.0.sroa.0.0.insert.ext = zext i16 %.sroa.0.sroa.0.0 to i32
  %.sroa.0.sroa.0.0.insert.insert = or disjoint i32 %.sroa.0.sroa.5.0, %.sroa.0.sroa.0.0.insert.ext
  ret i32 %.sroa.0.sroa.0.0.insert.insert
}